target datalayout = "e-m:e-p270:32:32-p271:32:32-p272:64:64-i64:64-i128:128-f80:128-n8:16:32:64-S128"
target triple = "x86_64-pc-linux-gnu"

; Function Attrs: nounwind uwtable
define internal void @unquantize_intra_differences(ptr noundef %0, i32 noundef %1, i32 noundef %2, double noundef %3, ptr noundef %4) #0 {
  %6 = alloca ptr, align 8
  %7 = alloca i32, align 4
  %8 = alloca i32, align 4
  %9 = alloca double, align 8
  %10 = alloca ptr, align 8
  %11 = alloca i32, align 4
  %12 = alloca i32, align 4
  %13 = alloca i32, align 4
  %14 = alloca i32, align 4
  store ptr %0, ptr %6, align 8, !tbaa !26
  store i32 %1, ptr %7, align 4, !tbaa !8
  store i32 %2, ptr %8, align 4, !tbaa !8
  store double %3, ptr %9, align 8, !tbaa !28
  store ptr %4, ptr %10, align 8, !tbaa !3
  call void @llvm.lifetime.start.p0(i64 4, ptr %11) #7
  call void @llvm.lifetime.start.p0(i64 4, ptr %12) #7
  call void @llvm.lifetime.start.p0(i64 4, ptr %13) #7
  store i32 0, ptr %11, align 4, !tbaa !8
  br label %15

15:                                               ; preds = %91, %5
  %16 = load i32, ptr %11, align 4, !tbaa !8
  %17 = load i32, ptr %8, align 4, !tbaa !8
  %18 = icmp slt i32 %16, %17
  br i1 %18, label %19, label %94

19:                                               ; preds = %15
  store i32 0, ptr %13, align 4, !tbaa !8
  br label %20

20:                                               ; preds = %87, %19
  %21 = load i32, ptr %13, align 4, !tbaa !8
  %22 = icmp slt i32 %21, 3
  br i1 %22, label %23, label %90

23:                                               ; preds = %20
  call void @llvm.lifetime.start.p0(i64 4, ptr %14) #7
  %24 = load ptr, ptr %10, align 8, !tbaa !3
  %25 = load i32, ptr %11, align 4, !tbaa !8
  %26 = load i32, ptr %7, align 4, !tbaa !8
  %27 = mul nsw i32 %25, %26
  %28 = mul nsw i32 %27, 3
  %29 = load i32, ptr %13, align 4, !tbaa !8
  %30 = add nsw i32 %28, %29
  %31 = sext i32 %30 to i64
  %32 = getelementptr inbounds i32, ptr %24, i64 %31
  %33 = load i32, ptr %32, align 4, !tbaa !8
  store i32 %33, ptr %14, align 4, !tbaa !8
  %34 = load i32, ptr %14, align 4, !tbaa !8
  %35 = sitofp i32 %34 to double
  %36 = load double, ptr %9, align 8, !tbaa !28
  %37 = fmul double %35, %36
  %38 = load ptr, ptr %6, align 8, !tbaa !26
  %39 = load i32, ptr %11, align 4, !tbaa !8
  %40 = load i32, ptr %7, align 4, !tbaa !8
  %41 = mul nsw i32 %39, %40
  %42 = mul nsw i32 %41, 3
  %43 = load i32, ptr %13, align 4, !tbaa !8
  %44 = add nsw i32 %42, %43
  %45 = sext i32 %44 to i64
  %46 = getelementptr inbounds double, ptr %38, i64 %45
  store double %37, ptr %46, align 8, !tbaa !28
  store i32 1, ptr %12, align 4, !tbaa !8
  br label %47

47:                                               ; preds = %83, %23
  %48 = load i32, ptr %12, align 4, !tbaa !8
  %49 = load i32, ptr %7, align 4, !tbaa !8
  %50 = icmp slt i32 %48, %49
  br i1 %50, label %51, label %86

51:                                               ; preds = %47
  %52 = load ptr, ptr %10, align 8, !tbaa !3
  %53 = load i32, ptr %11, align 4, !tbaa !8
  %54 = load i32, ptr %7, align 4, !tbaa !8
  %55 = mul nsw i32 %53, %54
  %56 = mul nsw i32 %55, 3
  %57 = load i32, ptr %12, align 4, !tbaa !8
  %58 = mul nsw i32 %57, 3
  %59 = add nsw i32 %56, %58
  %60 = load i32, ptr %13, align 4, !tbaa !8
  %61 = add nsw i32 %59, %60
  %62 = sext i32 %61 to i64
  %63 = getelementptr inbounds i32, ptr %52, i64 %62
  %64 = load i32, ptr %63, align 4, !tbaa !8
  %65 = load i32, ptr %14, align 4, !tbaa !8
  %66 = add nsw i32 %65, %64
  store i32 %66, ptr %14, align 4, !tbaa !8
  %67 = load i32, ptr %14, align 4, !tbaa !8
  %68 = sitofp i32 %67 to double
  %69 = load double, ptr %9, align 8, !tbaa !28
  %70 = fmul double %68, %69
  %71 = load ptr, ptr %6, align 8, !tbaa !26
  %72 = load i32, ptr %11, align 4, !tbaa !8
  %73 = load i32, ptr %7, align 4, !tbaa !8
  %74 = mul nsw i32 %72, %73
  %75 = mul nsw i32 %74, 3
  %76 = load i32, ptr %12, align 4, !tbaa !8
  %77 = mul nsw i32 %76, 3
  %78 = add nsw i32 %75, %77
  %79 = load i32, ptr %13, align 4, !tbaa !8
  %80 = add nsw i32 %78, %79
  %81 = sext i32 %80 to i64
  %82 = getelementptr inbounds double, ptr %71, i64 %81
  store double %70, ptr %82, align 8, !tbaa !28
  br label %83

83:                                               ; preds = %51
  %84 = load i32, ptr %12, align 4, !tbaa !8
  %85 = add nsw i32 %84, 1
  store i32 %85, ptr %12, align 4, !tbaa !8
  br label %47, !llvm.loop !59

86:                                               ; preds = %47
  call void @llvm.lifetime.end.p0(i64 4, ptr %14) #7
  br label %87

87:                                               ; preds = %86
  %88 = load i32, ptr %13, align 4, !tbaa !8
  %89 = add nsw i32 %88, 1
  store i32 %89, ptr %13, align 4, !tbaa !8
  br label %20, !llvm.loop !60

90:                                               ; preds = %20
  br label %91

91:                                               ; preds = %90
  %92 = load i32, ptr %11, align 4, !tbaa !8
  %93 = add nsw i32 %92, 1
  store i32 %93, ptr %11, align 4, !tbaa !8
  br label %15, !llvm.loop !61

94:                                               ; preds = %15
  call void @llvm.lifetime.end.p0(i64 4, ptr %13) #7
  call void @llvm.lifetime.end.p0(i64 4, ptr %12) #7
  call void @llvm.lifetime.end.p0(i64 4, ptr %11) #7
  ret void
}